target datalayout = "e-m:e-p270:32:32-p271:32:32-p272:64:64-i64:64-i128:128-f80:128-n8:16:32:64-S128"
target triple = "x86_64-pc-linux-gnu"

%class.DCmdParser = type { ptr, ptr }
%class.GenDCmdArgument = type <{ ptr, ptr, ptr, ptr, ptr, ptr, i8, i8, i8, [5 x i8] }>

@.str = private unnamed_addr constant [51 x i8] c"src/hotspot/share/services/diagnosticFramework.cpp\00", align 1
@.str.7 = private unnamed_addr constant [32 x i8] c"The argument '%s' is mandatory.\00", align 1
@.str.8 = private unnamed_addr constant [30 x i8] c"The option '%s' is mandatory.\00", align 1
@_ZN6Symbol11_vm_symbolsE = external global [0 x ptr], align 8

; Function Attrs: mustprogress nounwind uwtable
define linkonce_odr hidden noundef ptr @_ZN15GenDCmdArgument4nextEv(ptr noundef nonnull align 8 dereferenceable(51) %0) #1 comdat align 2 {
  %2 = alloca ptr, align 8
  store ptr %0, ptr %2, align 8
  %3 = load ptr, ptr %2, align 8
  %4 = getelementptr inbounds %class.GenDCmdArgument, ptr %3, i32 0, i32 1
  %5 = load ptr, ptr %4, align 8
  ret ptr %5
}

; Function Attrs: mustprogress nounwind uwtable
define linkonce_odr hidden noundef ptr @_ZN9vmSymbols34java_lang_IllegalArgumentExceptionEv() #1 comdat align 2 {
  %1 = load ptr, ptr getelementptr inbounds ([0 x ptr], ptr @_ZN6Symbol11_vm_symbolsE, i64 0, i64 138), align 8
  ret ptr %1
}

; Function Attrs: mustprogress nounwind uwtable
define linkonce_odr hidden noundef ptr @_ZNK15GenDCmdArgument4nameEv(ptr noundef nonnull align 8 dereferenceable(51) %0) #1 comdat align 2 {
  %2 = alloca ptr, align 8
  store ptr %0, ptr %2, align 8
  %3 = load ptr, ptr %2, align 8
  %4 = getelementptr inbounds %class.GenDCmdArgument, ptr %3, i32 0, i32 2
  %5 = load ptr, ptr %4, align 8
  ret ptr %5
}

; Function Attrs: mustprogress nounwind uwtable
define linkonce_odr hidden noundef zeroext i1 @_ZNK15GenDCmdArgument9has_valueEv(ptr noundef nonnull align 8 dereferenceable(51) %0) #1 comdat align 2 {
  %2 = alloca ptr, align 8
  store ptr %0, ptr %2, align 8
  %3 = load ptr, ptr %2, align 8
  %4 = getelementptr inbounds %class.GenDCmdArgument, ptr %3, i32 0, i32 6
  %5 = load i8, ptr %4, align 8
  %6 = trunc i8 %5 to i1
  br i1 %6, label %11, label %7

7:                                                ; preds = %1
  %8 = getelementptr inbounds %class.GenDCmdArgument, ptr %3, i32 0, i32 5
  %9 = load ptr, ptr %8, align 8
  %10 = icmp ne ptr %9, null
  br label %11

11:                                               ; preds = %7, %1
  %12 = phi i1 [ true, %1 ], [ %10, %7 ]
  ret i1 %12
}

; Function Attrs: mustprogress nounwind uwtable
define linkonce_odr hidden noundef zeroext i1 @_ZNK15GenDCmdArgument12is_mandatoryEv(ptr noundef nonnull align 8 dereferenceable(51) %0) #1 comdat align 2 {
  %2 = alloca ptr, align 8
  store ptr %0, ptr %2, align 8
  %3 = load ptr, ptr %2, align 8
  %4 = getelementptr inbounds %class.GenDCmdArgument, ptr %3, i32 0, i32 7
  %5 = load i8, ptr %4, align 1
  %6 = trunc i8 %5 to i1
  ret i1 %6
}

; Function Attrs: mustprogress nounwind uwtable
define hidden void @_ZN10DCmdParser5checkEP10JavaThread(ptr noundef nonnull align 8 dereferenceable(16) %0, ptr noundef %1) #1 align 2 {
  %3 = alloca ptr, align 8
  %4 = alloca ptr, align 8
  %5 = alloca i64, align 8
  %6 = alloca [256 x i8], align 16
  %7 = alloca ptr, align 8
  store ptr %0, ptr %3, align 8
  store ptr %1, ptr %4, align 8
  %8 = load ptr, ptr %3, align 8
  store i64 256, ptr %5, align 8
  %9 = getelementptr inbounds %class.DCmdParser, ptr %8, i32 0, i32 1
  %10 = load ptr, ptr %9, align 8
  store ptr %10, ptr %7, align 8
  br label %11

11:                                               ; preds = %28, %2
  %12 = load ptr, ptr %7, align 8
  %13 = icmp ne ptr %12, null
  br i1 %13, label %14, label %31

14:                                               ; preds = %11
  %15 = load ptr, ptr %7, align 8
  %16 = call noundef zeroext i1 @_ZNK15GenDCmdArgument12is_mandatoryEv(ptr noundef nonnull align 8 dereferenceable(51) %15)
  br i1 %16, label %17, label %28

17:                                               ; preds = %14
  %18 = load ptr, ptr %7, align 8
  %19 = call noundef zeroext i1 @_ZNK15GenDCmdArgument9has_valueEv(ptr noundef nonnull align 8 dereferenceable(51) %18)
  br i1 %19, label %28, label %20

20:                                               ; preds = %17
  %21 = getelementptr inbounds [256 x i8], ptr %6, i64 0, i64 0
  %22 = load ptr, ptr %7, align 8
  %23 = call noundef ptr @_ZNK15GenDCmdArgument4nameEv(ptr noundef nonnull align 8 dereferenceable(51) %22)
  %24 = call i32 (ptr, i64, ptr, ...) @jio_snprintf(ptr noundef %21, i64 noundef 255, ptr noundef @.str.7, ptr noundef %23)
  %25 = load ptr, ptr %4, align 8
  %26 = call noundef ptr @_ZN9vmSymbols34java_lang_IllegalArgumentExceptionEv()
  %27 = getelementptr inbounds [256 x i8], ptr %6, i64 0, i64 0
  call void @_ZN10Exceptions10_throw_msgEP10JavaThreadPKciP6SymbolS3_(ptr noundef %25, ptr noundef @.str, i32 noundef 241, ptr noundef %26, ptr noundef %27)
  br label %54

28:                                               ; preds = %17, %14
  %29 = load ptr, ptr %7, align 8
  %30 = call noundef ptr @_ZN15GenDCmdArgument4nextEv(ptr noundef nonnull align 8 dereferenceable(51) %29)
  store ptr %30, ptr %7, align 8
  br label %11, !llvm.loop !18

31:                                               ; preds = %11
  %32 = getelementptr inbounds %class.DCmdParser, ptr %8, i32 0, i32 0
  %33 = load ptr, ptr %32, align 8
  store ptr %33, ptr %7, align 8
  br label %34

34:                                               ; preds = %51, %31
  %35 = load ptr, ptr %7, align 8
  %36 = icmp ne ptr %35, null
  br i1 %36, label %37, label %54

37:                                               ; preds = %34
  %38 = load ptr, ptr %7, align 8
  %39 = call noundef zeroext i1 @_ZNK15GenDCmdArgument12is_mandatoryEv(ptr noundef nonnull align 8 dereferenceable(51) %38)
  br i1 %39, label %40, label %51

40:                                               ; preds = %37
  %41 = load ptr, ptr %7, align 8
  %42 = call noundef zeroext i1 @_ZNK15GenDCmdArgument9has_valueEv(ptr noundef nonnull align 8 dereferenceable(51) %41)
  br i1 %42, label %51, label %43

43:                                               ; preds = %40
  %44 = getelementptr inbounds [256 x i8], ptr %6, i64 0, i64 0
  %45 = load ptr, ptr %7, align 8
  %46 = call noundef ptr @_ZNK15GenDCmdArgument4nameEv(ptr noundef nonnull align 8 dereferenceable(51) %45)
  %47 = call i32 (ptr, i64, ptr, ...) @jio_snprintf(ptr noundef %44, i64 noundef 255, ptr noundef @.str.8, ptr noundef %46)
  %48 = load ptr, ptr %4, align 8
  %49 = call noundef ptr @_ZN9vmSymbols34java_lang_IllegalArgumentExceptionEv()
  %50 = getelementptr inbounds [256 x i8], ptr %6, i64 0, i64 0
  call void @_ZN10Exceptions10_throw_msgEP10JavaThreadPKciP6SymbolS3_(ptr noundef %48, ptr noundef @.str, i32 noundef 249, ptr noundef %49, ptr noundef %50)
  br label %54

51:                                               ; preds = %40, %37
  %52 = load ptr, ptr %7, align 8
  %53 = call noundef ptr @_ZN15GenDCmdArgument4nextEv(ptr noundef nonnull align 8 dereferenceable(51) %52)
  store ptr %53, ptr %7, align 8
  br label %34, !llvm.loop !19

54:                                               ; preds = %43, %34, %20
  ret void
}