; Function Attrs: mustprogress nounwind uwtable
define hidden void @_ZN10DCmdParser5checkEP10JavaThread(ptr nocapture noundef nonnull readonly align 8 dereferenceable(16) %0, ptr noundef %1) local_unnamed_addr #2 align 2 {
  %3 = alloca [256 x i8], align 16
  %.0.in16 = getelementptr inbounds i8, ptr %0, i64 8
  %.017 = load ptr, ptr %.0.in16, align 8
  %.not18 = icmp eq ptr %.017, null
  br i1 %.not18, label %.preheader, label %.lr.ph

.preheader:                                       ; preds = %15, %2
  %.120 = load ptr, ptr %0, align 8
  %.not1321 = icmp eq ptr %.120, null
  br i1 %.not1321, label %.loopexit, label %.lr.ph23

.lr.ph:                                           ; preds = %2, %15
  %.019 = phi ptr [ %.0, %15 ], [ %.017, %2 ]
  %4 = getelementptr inbounds i8, ptr %.019, i64 49
  %5 = load i8, ptr %4, align 1
  %6 = trunc i8 %5 to i1
  br i1 %6, label %7, label %15

7:                                                ; preds = %.lr.ph
  %8 = getelementptr inbounds i8, ptr %.019, i64 48
  %9 = load i8, ptr %8, align 8
  %10 = trunc i8 %9 to i1
  %11 = getelementptr inbounds i8, ptr %.019, i64 40
  %12 = load ptr, ptr %11, align 8
  %13 = icmp ne ptr %12, null
  %14 = select i1 %10, i1 true, i1 %13
  br i1 %14, label %15, label %.loopexit.sink.split

15:                                               ; preds = %7, %.lr.ph
  %.0.in = getelementptr inbounds i8, ptr %.019, i64 8
  %.0 = load ptr, ptr %.0.in, align 8
  %.not = icmp eq ptr %.0, null
  br i1 %.not, label %.preheader, label %.lr.ph, !llvm.loop !18

.lr.ph23:                                         ; preds = %.preheader, %27
  %.122 = phi ptr [ %.1, %27 ], [ %.120, %.preheader ]
  %16 = getelementptr inbounds i8, ptr %.122, i64 49
  %17 = load i8, ptr %16, align 1
  %18 = trunc i8 %17 to i1
  br i1 %18, label %19, label %27

19:                                               ; preds = %.lr.ph23
  %20 = getelementptr inbounds i8, ptr %.122, i64 48
  %21 = load i8, ptr %20, align 8
  %22 = trunc i8 %21 to i1
  %23 = getelementptr inbounds i8, ptr %.122, i64 40
  %24 = load ptr, ptr %23, align 8
  %25 = icmp ne ptr %24, null
  %26 = select i1 %22, i1 true, i1 %25
  br i1 %26, label %27, label %.loopexit.sink.split

27:                                               ; preds = %19, %.lr.ph23
  %28 = getelementptr inbounds i8, ptr %.122, i64 8
  %.1 = load ptr, ptr %28, align 8
  %.not13 = icmp eq ptr %.1, null
  br i1 %.not13, label %.loopexit, label %.lr.ph23, !llvm.loop !19

.loopexit.sink.split:                             ; preds = %7, %19
  %.122.lcssa.sink = phi ptr [ %.122, %19 ], [ %.019, %7 ]
  %.str.8.sink = phi ptr [ @.str.8, %19 ], [ @.str.7, %7 ]
  %.sink = phi i32 [ 249, %19 ], [ 241, %7 ]
  %29 = getelementptr inbounds i8, ptr %.122.lcssa.sink, i64 16
  %30 = load ptr, ptr %29, align 8
  %31 = call i32 (ptr, i64, ptr, ...) @jio_snprintf(ptr noundef nonnull %3, i64 noundef 255, ptr noundef nonnull %.str.8.sink, ptr noundef %30) #19
  %32 = load ptr, ptr getelementptr inbounds (i8, ptr @_ZN6Symbol11_vm_symbolsE, i64 1104), align 8
  call void @_ZN10Exceptions10_throw_msgEP10JavaThreadPKciP6SymbolS3_(ptr noundef %1, ptr noundef nonnull @.str, i32 noundef %.sink, ptr noundef %32, ptr noundef nonnull %3) #19
  br label %.loopexit

.loopexit:                                        ; preds = %27, %.loopexit.sink.split, %.preheader
  ret void
}